target datalayout = "e-m:e-p270:32:32-p271:32:32-p272:64:64-i64:64-i128:128-f80:128-n8:16:32:64-S128"
target triple = "x86_64-pc-linux-gnu"

%struct._packet_info = type { ptr, ptr, i32, i32, %struct.nstime_t, %struct.nstime_t, %struct.nstime_t, i8, ptr, ptr, ptr, ptr, %struct._address, %struct._address, %struct._address, %struct._address, %struct._address, %struct._address, i32, ptr, i8, [3 x i8], %struct.anon, i32, i32, i32, i32, ptr, i8, ptr, ptr, i16, i16, i32, i32, i16, i32, i32, ptr, ptr, ptr, i8, i8, i16, i16, i16, i32, i16, i16, ptr, ptr, ptr, ptr, ptr, i32, i32 }
%struct.nstime_t = type { i64, i32 }
%struct._address = type { i32, i32, ptr, ptr }
%struct.anon = type { i8, [3 x i8] }
%struct._asn1_ctx_t = type { i32, i32, i8, ptr, ptr, ptr, ptr, ptr, %struct.anon.0, %struct.anon.3, %struct.anon.4, ptr }
%struct.anon.0 = type { i32, i8, i8, i8, ptr, ptr, i32, i32, ptr, ptr, ptr, %union.anon }
%union.anon = type { %struct.anon.1 }
%struct.anon.1 = type { ptr }
%struct.anon.3 = type { ptr, ptr, ptr }
%struct.anon.4 = type { i32, i8, ptr, i32, i32, ptr, ptr, ptr, %union.anon.5 }
%union.anon.5 = type { %struct.anon.6 }
%struct.anon.6 = type { ptr }

@ett_per_named_bits = internal global i32 0, align 4
@.str.182 = private unnamed_addr constant [14 x i8] c"Bitstring tvb\00", align 1
@.str.183 = private unnamed_addr constant [16 x i8] c" [bit length %u\00", align 1
@.str.184 = private unnamed_addr constant [18 x i8] c", %u LSB pad bits\00", align 1
@.str.185 = private unnamed_addr constant [23 x i8] c", %s decimal value %lu\00", align 1
@.str.186 = private unnamed_addr constant [2 x i8] c"]\00", align 1

; Function Attrs: alwaysinline nounwind
define internal ptr @memcpy.inline(ptr noalias %0, ptr noalias %1, i64 %2) #8 {
  %4 = alloca ptr, align 8
  %5 = alloca ptr, align 8
  %6 = alloca i64, align 8
  store ptr %0, ptr %4, align 8
  store ptr %1, ptr %5, align 8
  store i64 %2, ptr %6, align 8
  %7 = load ptr, ptr %4, align 8
  %8 = load ptr, ptr %5, align 8
  %9 = load i64, ptr %6, align 8
  %10 = load ptr, ptr %4, align 8
  %11 = call i64 @llvm.objectsize.i64.p0(ptr %10, i1 false, i1 true, i1 true)
  %12 = call ptr @__memcpy_chk(ptr noundef %7, ptr noundef %8, i64 noundef %9, i64 noundef %11) #11
  ret ptr %12
}

; Function Attrs: null_pointer_is_valid sspstrong uwtable
define internal ptr @dissect_per_bit_string_display(ptr noundef %0, i32 noundef %1, ptr noundef %2, ptr noundef %3, i32 noundef %4, ptr noundef %5, i32 noundef %6, ptr noundef %7, i32 noundef %8) #0 {
  %10 = alloca ptr, align 8
  %11 = alloca i32, align 4
  %12 = alloca ptr, align 8
  %13 = alloca ptr, align 8
  %14 = alloca i32, align 4
  %15 = alloca ptr, align 8
  %16 = alloca i32, align 4
  %17 = alloca ptr, align 8
  %18 = alloca i32, align 4
  %19 = alloca ptr, align 8
  %20 = alloca i32, align 4
  %21 = alloca i64, align 8
  %22 = alloca i32, align 4
  %23 = alloca ptr, align 8
  %24 = alloca i32, align 4
  %25 = alloca i32, align 4
  %26 = alloca ptr, align 8
  %27 = alloca [9 x ptr], align 16
  store ptr %0, ptr %10, align 8
  store i32 %1, ptr %11, align 4
  store ptr %2, ptr %12, align 8
  store ptr %3, ptr %13, align 8
  store i32 %4, ptr %14, align 4
  store ptr %5, ptr %15, align 8
  store i32 %6, ptr %16, align 4
  store ptr %7, ptr %17, align 8
  store i32 %8, ptr %18, align 4
  call void @llvm.lifetime.start.p0(i64 8, ptr %19) #11
  store ptr null, ptr %19, align 8
  call void @llvm.lifetime.start.p0(i64 4, ptr %20) #11
  store i32 0, ptr %20, align 4
  call void @llvm.lifetime.start.p0(i64 8, ptr %21) #11
  %28 = load ptr, ptr %10, align 8
  %29 = load i32, ptr %11, align 4
  %30 = load i32, ptr %16, align 4
  %31 = call ptr @tvb_new_octet_aligned(ptr noundef %28, i32 noundef %29, i32 noundef %30)
  store ptr %31, ptr %19, align 8
  %32 = load ptr, ptr %12, align 8
  %33 = getelementptr inbounds nuw %struct._asn1_ctx_t, ptr %32, i32 0, i32 3
  %34 = load ptr, ptr %33, align 8
  %35 = load ptr, ptr %19, align 8
  call void @add_new_data_source(ptr noundef %34, ptr noundef %35, ptr noundef @.str.182)
  %36 = load ptr, ptr %15, align 8
  %37 = icmp ne ptr %36, null
  br i1 %37, label %38, label %265

38:                                               ; preds = %9
  %39 = load ptr, ptr %13, align 8
  %40 = load i32, ptr %14, align 4
  %41 = load ptr, ptr %19, align 8
  %42 = call ptr @proto_tree_add_item(ptr noundef %39, i32 noundef %40, ptr noundef %41, i32 noundef 0, i32 noundef -1, i32 noundef 0)
  %43 = load ptr, ptr %12, align 8
  %44 = getelementptr inbounds nuw %struct._asn1_ctx_t, ptr %43, i32 0, i32 4
  store ptr %42, ptr %44, align 8
  %45 = load ptr, ptr %12, align 8
  %46 = getelementptr inbounds nuw %struct._asn1_ctx_t, ptr %45, i32 0, i32 4
  %47 = load ptr, ptr %46, align 8
  %48 = load i32, ptr %16, align 4
  call void (ptr, ptr, ...) @proto_item_append_text(ptr noundef %47, ptr noundef @.str.183, i32 noundef %48)
  %49 = load i32, ptr %16, align 4
  %50 = urem i32 %49, 8
  %51 = icmp ne i32 %50, 0
  br i1 %51, label %52, label %60

52:                                               ; preds = %38
  %53 = load i32, ptr %16, align 4
  %54 = urem i32 %53, 8
  %55 = sub i32 8, %54
  store i32 %55, ptr %20, align 4
  %56 = load ptr, ptr %12, align 8
  %57 = getelementptr inbounds nuw %struct._asn1_ctx_t, ptr %56, i32 0, i32 4
  %58 = load ptr, ptr %57, align 8
  %59 = load i32, ptr %20, align 4
  call void (ptr, ptr, ...) @proto_item_append_text(ptr noundef %58, ptr noundef @.str.184, i32 noundef %59)
  br label %60

60:                                               ; preds = %52, %38
  %61 = load i32, ptr %16, align 4
  %62 = icmp ule i32 %61, 64
  br i1 %62, label %63, label %261

63:                                               ; preds = %60
  %64 = load i32, ptr %16, align 4
  %65 = icmp ule i32 %64, 8
  br i1 %65, label %66, label %71

66:                                               ; preds = %63
  %67 = load ptr, ptr %19, align 8
  %68 = load i32, ptr %16, align 4
  %69 = call zeroext i8 @tvb_get_bits8(ptr noundef %67, i32 noundef 0, i32 noundef %68)
  %70 = zext i8 %69 to i64
  store i64 %70, ptr %21, align 8
  br label %180

71:                                               ; preds = %63
  %72 = load i32, ptr %16, align 4
  %73 = icmp ule i32 %72, 16
  br i1 %73, label %74, label %79

74:                                               ; preds = %71
  %75 = load ptr, ptr %19, align 8
  %76 = load i32, ptr %16, align 4
  %77 = call zeroext i16 @tvb_get_bits16(ptr noundef %75, i32 noundef 0, i32 noundef %76, i32 noundef 0)
  %78 = zext i16 %77 to i64
  store i64 %78, ptr %21, align 8
  br label %179

79:                                               ; preds = %71
  %80 = load i32, ptr %16, align 4
  %81 = icmp ule i32 %80, 24
  br i1 %81, label %82, label %98

82:                                               ; preds = %79
  %83 = load ptr, ptr %19, align 8
  %84 = call zeroext i16 @tvb_get_bits16(ptr noundef %83, i32 noundef 0, i32 noundef 16, i32 noundef 0)
  %85 = zext i16 %84 to i64
  store i64 %85, ptr %21, align 8
  %86 = load i32, ptr %20, align 4
  %87 = sub i32 8, %86
  %88 = load i64, ptr %21, align 8
  %89 = zext i32 %87 to i64
  %90 = shl i64 %88, %89
  store i64 %90, ptr %21, align 8
  %91 = load ptr, ptr %19, align 8
  %92 = load i32, ptr %16, align 4
  %93 = sub i32 %92, 16
  %94 = call zeroext i8 @tvb_get_bits8(ptr noundef %91, i32 noundef 16, i32 noundef %93)
  %95 = zext i8 %94 to i64
  %96 = load i64, ptr %21, align 8
  %97 = or i64 %96, %95
  store i64 %97, ptr %21, align 8
  br label %178

98:                                               ; preds = %79
  %99 = load i32, ptr %16, align 4
  %100 = icmp ule i32 %99, 32
  br i1 %100, label %101, label %106

101:                                              ; preds = %98
  %102 = load ptr, ptr %19, align 8
  %103 = load i32, ptr %16, align 4
  %104 = call i32 @tvb_get_bits32(ptr noundef %102, i32 noundef 0, i32 noundef %103, i32 noundef 0)
  %105 = zext i32 %104 to i64
  store i64 %105, ptr %21, align 8
  br label %177

106:                                              ; preds = %98
  %107 = load i32, ptr %16, align 4
  %108 = icmp ule i32 %107, 40
  br i1 %108, label %109, label %125

109:                                              ; preds = %106
  %110 = load ptr, ptr %19, align 8
  %111 = call i32 @tvb_get_bits32(ptr noundef %110, i32 noundef 0, i32 noundef 32, i32 noundef 0)
  %112 = zext i32 %111 to i64
  store i64 %112, ptr %21, align 8
  %113 = load i32, ptr %20, align 4
  %114 = sub i32 8, %113
  %115 = load i64, ptr %21, align 8
  %116 = zext i32 %114 to i64
  %117 = shl i64 %115, %116
  store i64 %117, ptr %21, align 8
  %118 = load ptr, ptr %19, align 8
  %119 = load i32, ptr %16, align 4
  %120 = sub i32 %119, 32
  %121 = call zeroext i8 @tvb_get_bits8(ptr noundef %118, i32 noundef 32, i32 noundef %120)
  %122 = zext i8 %121 to i64
  %123 = load i64, ptr %21, align 8
  %124 = or i64 %123, %122
  store i64 %124, ptr %21, align 8
  br label %176

125:                                              ; preds = %106
  %126 = load i32, ptr %16, align 4
  %127 = icmp ule i32 %126, 48
  br i1 %127, label %128, label %144

128:                                              ; preds = %125
  %129 = load ptr, ptr %19, align 8
  %130 = call i32 @tvb_get_bits32(ptr noundef %129, i32 noundef 0, i32 noundef 32, i32 noundef 0)
  %131 = zext i32 %130 to i64
  store i64 %131, ptr %21, align 8
  %132 = load i32, ptr %20, align 4
  %133 = sub i32 16, %132
  %134 = load i64, ptr %21, align 8
  %135 = zext i32 %133 to i64
  %136 = shl i64 %134, %135
  store i64 %136, ptr %21, align 8
  %137 = load ptr, ptr %19, align 8
  %138 = load i32, ptr %16, align 4
  %139 = sub i32 %138, 32
  %140 = call zeroext i16 @tvb_get_bits16(ptr noundef %137, i32 noundef 32, i32 noundef %139, i32 noundef 0)
  %141 = zext i16 %140 to i64
  %142 = load i64, ptr %21, align 8
  %143 = or i64 %142, %141
  store i64 %143, ptr %21, align 8
  br label %175

144:                                              ; preds = %125
  %145 = load i32, ptr %16, align 4
  %146 = icmp ule i32 %145, 56
  br i1 %146, label %147, label %170

147:                                              ; preds = %144
  %148 = load ptr, ptr %19, align 8
  %149 = call i32 @tvb_get_bits32(ptr noundef %148, i32 noundef 0, i32 noundef 32, i32 noundef 0)
  %150 = zext i32 %149 to i64
  store i64 %150, ptr %21, align 8
  %151 = load i64, ptr %21, align 8
  %152 = shl i64 %151, 16
  store i64 %152, ptr %21, align 8
  %153 = load ptr, ptr %19, align 8
  %154 = call zeroext i16 @tvb_get_bits16(ptr noundef %153, i32 noundef 32, i32 noundef 16, i32 noundef 0)
  %155 = zext i16 %154 to i64
  %156 = load i64, ptr %21, align 8
  %157 = or i64 %156, %155
  store i64 %157, ptr %21, align 8
  %158 = load i32, ptr %20, align 4
  %159 = sub i32 8, %158
  %160 = load i64, ptr %21, align 8
  %161 = zext i32 %159 to i64
  %162 = shl i64 %160, %161
  store i64 %162, ptr %21, align 8
  %163 = load ptr, ptr %19, align 8
  %164 = load i32, ptr %16, align 4
  %165 = sub i32 %164, 48
  %166 = call zeroext i8 @tvb_get_bits8(ptr noundef %163, i32 noundef 48, i32 noundef %165)
  %167 = zext i8 %166 to i64
  %168 = load i64, ptr %21, align 8
  %169 = or i64 %168, %167
  store i64 %169, ptr %21, align 8
  br label %174

170:                                              ; preds = %144
  %171 = load ptr, ptr %19, align 8
  %172 = load i32, ptr %16, align 4
  %173 = call i64 @tvb_get_bits64(ptr noundef %171, i32 noundef 0, i32 noundef %172, i32 noundef 0)
  store i64 %173, ptr %21, align 8
  br label %174

174:                                              ; preds = %170, %147
  br label %175

175:                                              ; preds = %174, %128
  br label %176

176:                                              ; preds = %175, %109
  br label %177

177:                                              ; preds = %176, %101
  br label %178

178:                                              ; preds = %177, %82
  br label %179

179:                                              ; preds = %178, %74
  br label %180

180:                                              ; preds = %179, %66
  %181 = load ptr, ptr %12, align 8
  %182 = getelementptr inbounds nuw %struct._asn1_ctx_t, ptr %181, i32 0, i32 4
  %183 = load ptr, ptr %182, align 8
  %184 = load ptr, ptr %12, align 8
  %185 = getelementptr inbounds nuw %struct._asn1_ctx_t, ptr %184, i32 0, i32 3
  %186 = load ptr, ptr %185, align 8
  %187 = getelementptr inbounds nuw %struct._packet_info, ptr %186, i32 0, i32 51
  %188 = load ptr, ptr %187, align 8
  %189 = load i32, ptr %16, align 4
  %190 = load i64, ptr %21, align 8
  %191 = call ptr @decode_bits_in_field(ptr noundef %188, i32 noundef 0, i32 noundef %189, i64 noundef %190, i32 noundef 0)
  %192 = load i64, ptr %21, align 8
  call void (ptr, ptr, ...) @proto_item_append_text(ptr noundef %183, ptr noundef @.str.185, ptr noundef %191, i64 noundef %192)
  %193 = load ptr, ptr %17, align 8
  %194 = icmp ne ptr %193, null
  br i1 %194, label %195, label %260

195:                                              ; preds = %180
  call void @llvm.lifetime.start.p0(i64 4, ptr %22) #11
  %196 = load i32, ptr %18, align 4
  %197 = add i32 %196, 7
  %198 = sdiv i32 %197, 8
  store i32 %198, ptr %22, align 4
  call void @llvm.lifetime.start.p0(i64 8, ptr %23) #11
  %199 = load ptr, ptr %12, align 8
  %200 = getelementptr inbounds nuw %struct._asn1_ctx_t, ptr %199, i32 0, i32 4
  %201 = load ptr, ptr %200, align 8
  %202 = load i32, ptr @ett_per_named_bits, align 4
  %203 = call ptr @proto_item_add_subtree(ptr noundef %201, i32 noundef %202)
  store ptr %203, ptr %23, align 8
  call void @llvm.lifetime.start.p0(i64 4, ptr %24) #11
  store i32 0, ptr %24, align 4
  br label %204

204:                                              ; preds = %256, %195
  %205 = load i32, ptr %24, align 4
  %206 = load i32, ptr %22, align 4
  %207 = icmp ult i32 %205, %206
  br i1 %207, label %209, label %208

208:                                              ; preds = %204
  call void @llvm.lifetime.end.p0(i64 4, ptr %24) #11
  br label %259

209:                                              ; preds = %204
  store i64 0, ptr %21, align 8
  call void @llvm.lifetime.start.p0(i64 4, ptr %25) #11
  %210 = load i32, ptr %24, align 4
  %211 = mul i32 8, %210
  store i32 %211, ptr %25, align 4
  %212 = load i32, ptr %25, align 4
  %213 = load i32, ptr %16, align 4
  %214 = icmp ult i32 %212, %213
  br i1 %214, label %215, label %220

215:                                              ; preds = %209
  %216 = load ptr, ptr %19, align 8
  %217 = load i32, ptr %24, align 4
  %218 = call zeroext i8 @tvb_get_uint8(ptr noundef %216, i32 noundef %217)
  %219 = zext i8 %218 to i64
  store i64 %219, ptr %21, align 8
  br label %220

220:                                              ; preds = %215, %209
  call void @llvm.lifetime.start.p0(i64 8, ptr %26) #11
  %221 = load ptr, ptr %17, align 8
  %222 = load i32, ptr %25, align 4
  %223 = zext i32 %222 to i64
  %224 = getelementptr ptr, ptr %221, i64 %223
  store ptr %224, ptr %26, align 8
  call void @llvm.lifetime.start.p0(i64 72, ptr %27) #11
  %225 = load i32, ptr %18, align 4
  %226 = load i32, ptr %25, align 4
  %227 = sub i32 %225, %226
  %228 = icmp ugt i32 %227, 8
  br i1 %228, label %229, label %238

229:                                              ; preds = %220
  %230 = getelementptr [9 x ptr], ptr %27, i64 0, i64 0
  %231 = load ptr, ptr %17, align 8
  %232 = load i32, ptr %25, align 4
  %233 = zext i32 %232 to i64
  %234 = getelementptr ptr, ptr %231, i64 %233
  %235 = call ptr @memcpy.inline(ptr noundef %230, ptr noundef %234, i64 noundef 64) #11
  %236 = getelementptr [9 x ptr], ptr %27, i64 0, i64 8
  store ptr null, ptr %236, align 16
  %237 = getelementptr inbounds [9 x ptr], ptr %27, i64 0, i64 0
  store ptr %237, ptr %26, align 8
  br label %238

238:                                              ; preds = %229, %220
  %239 = load ptr, ptr %23, align 8
  %240 = load ptr, ptr %19, align 8
  %241 = load i32, ptr %11, align 4
  %242 = load i32, ptr %24, align 4
  %243 = load i32, ptr %16, align 4
  %244 = sub i32 %243, 1
  %245 = icmp ult i32 %242, %244
  br i1 %245, label %246, label %248

246:                                              ; preds = %238
  %247 = load i32, ptr %24, align 4
  br label %251

248:                                              ; preds = %238
  %249 = load i32, ptr %16, align 4
  %250 = sub i32 %249, 1
  br label %251

251:                                              ; preds = %248, %246
  %252 = phi i32 [ %247, %246 ], [ %250, %248 ]
  %253 = add i32 %241, %252
  %254 = load ptr, ptr %26, align 8
  %255 = load i64, ptr %21, align 8
  call void @proto_tree_add_bitmask_list_value(ptr noundef %239, ptr noundef %240, i32 noundef %253, i32 noundef 1, ptr noundef %254, i64 noundef %255)
  call void @llvm.lifetime.end.p0(i64 72, ptr %27) #11
  call void @llvm.lifetime.end.p0(i64 8, ptr %26) #11
  call void @llvm.lifetime.end.p0(i64 4, ptr %25) #11
  br label %256

256:                                              ; preds = %251
  %257 = load i32, ptr %24, align 4
  %258 = add i32 %257, 1
  store i32 %258, ptr %24, align 4
  br label %204, !llvm.loop !42

259:                                              ; preds = %208
  call void @llvm.lifetime.end.p0(i64 8, ptr %23) #11
  call void @llvm.lifetime.end.p0(i64 4, ptr %22) #11
  br label %260

260:                                              ; preds = %259, %180
  br label %261

261:                                              ; preds = %260, %60
  %262 = load ptr, ptr %12, align 8
  %263 = getelementptr inbounds nuw %struct._asn1_ctx_t, ptr %262, i32 0, i32 4
  %264 = load ptr, ptr %263, align 8
  call void (ptr, ptr, ...) @proto_item_append_text(ptr noundef %264, ptr noundef @.str.186)
  br label %265

265:                                              ; preds = %261, %9
  %266 = load ptr, ptr %19, align 8
  call void @llvm.lifetime.end.p0(i64 8, ptr %21) #11
  call void @llvm.lifetime.end.p0(i64 4, ptr %20) #11
  call void @llvm.lifetime.end.p0(i64 8, ptr %19) #11
  ret ptr %266
}