; Function Attrs: null_pointer_is_valid sspstrong uwtable
define internal fastcc noundef ptr @dissect_per_bit_string_display(ptr noundef %0, i32 noundef %1, ptr noundef captures(none) %2, ptr noundef %3, i32 noundef %4, ptr noundef readnone captures(address_is_null) %5, i32 noundef %6, ptr noundef %7, i32 noundef %8) unnamed_addr #0 {
  %10 = alloca [9 x ptr], align 16
  %11 = tail call ptr @tvb_new_octet_aligned(ptr noundef %0, i32 noundef %1, i32 noundef %6)
  %12 = getelementptr inbounds nuw i8, ptr %2, i64 16
  %13 = load ptr, ptr %12, align 8
  tail call void @add_new_data_source(ptr noundef %13, ptr noundef %11, ptr noundef nonnull @.str.182)
  %.not = icmp eq ptr %5, null
  br i1 %.not, label %123, label %14

14:                                               ; preds = %9
  %15 = tail call ptr @proto_tree_add_item(ptr noundef %3, i32 noundef %4, ptr noundef %11, i32 noundef 0, i32 noundef -1, i32 noundef 0)
  %16 = getelementptr inbounds nuw i8, ptr %2, i64 24
  store ptr %15, ptr %16, align 8
  tail call void (ptr, ptr, ...) @proto_item_append_text(ptr noundef %15, ptr noundef nonnull @.str.183, i32 noundef %6)
  %17 = and i32 %6, 7
  %.not97 = icmp eq i32 %17, 0
  br i1 %.not97, label %21, label %18

18:                                               ; preds = %14
  %19 = sub nuw nsw i32 8, %17
  %20 = load ptr, ptr %16, align 8
  tail call void (ptr, ptr, ...) @proto_item_append_text(ptr noundef %20, ptr noundef nonnull @.str.184, i32 noundef %19)
  br label %21

21:                                               ; preds = %18, %14
  %.092 = phi i32 [ %19, %18 ], [ 0, %14 ]
  %22 = icmp ult i32 %6, 65
  br i1 %22, label %23, label %.loopexit

23:                                               ; preds = %21
  %24 = icmp samesign ult i32 %6, 9
  br i1 %24, label %25, label %28

25:                                               ; preds = %23
  %26 = tail call zeroext i8 @tvb_get_bits8(ptr noundef %11, i32 noundef 0, i32 noundef %6)
  %27 = zext i8 %26 to i64
  br label %92

28:                                               ; preds = %23
  %29 = icmp samesign ult i32 %6, 17
  br i1 %29, label %30, label %33

30:                                               ; preds = %28
  %31 = tail call zeroext i16 @tvb_get_bits16(ptr noundef %11, i32 noundef 0, i32 noundef %6, i32 noundef 0)
  %32 = zext i16 %31 to i64
  br label %92

33:                                               ; preds = %28
  %34 = icmp samesign ult i32 %6, 25
  br i1 %34, label %35, label %45

35:                                               ; preds = %33
  %36 = tail call zeroext i16 @tvb_get_bits16(ptr noundef %11, i32 noundef 0, i32 noundef 16, i32 noundef 0)
  %37 = zext i16 %36 to i64
  %38 = sub nuw nsw i32 8, %.092
  %39 = zext nneg i32 %38 to i64
  %40 = shl nuw nsw i64 %37, %39
  %41 = add nsw i32 %6, -16
  %42 = tail call zeroext i8 @tvb_get_bits8(ptr noundef %11, i32 noundef 16, i32 noundef %41)
  %43 = zext i8 %42 to i64
  %44 = or i64 %40, %43
  br label %92

45:                                               ; preds = %33
  %46 = icmp samesign ult i32 %6, 33
  br i1 %46, label %47, label %50

47:                                               ; preds = %45
  %48 = tail call i32 @tvb_get_bits32(ptr noundef %11, i32 noundef 0, i32 noundef %6, i32 noundef 0)
  %49 = zext i32 %48 to i64
  br label %92

50:                                               ; preds = %45
  %51 = icmp samesign ult i32 %6, 41
  br i1 %51, label %52, label %62

52:                                               ; preds = %50
  %53 = tail call i32 @tvb_get_bits32(ptr noundef %11, i32 noundef 0, i32 noundef 32, i32 noundef 0)
  %54 = zext i32 %53 to i64
  %55 = sub nuw nsw i32 8, %.092
  %56 = zext nneg i32 %55 to i64
  %57 = shl nuw nsw i64 %54, %56
  %58 = add nsw i32 %6, -32
  %59 = tail call zeroext i8 @tvb_get_bits8(ptr noundef %11, i32 noundef 32, i32 noundef %58)
  %60 = zext i8 %59 to i64
  %61 = or i64 %57, %60
  br label %92

62:                                               ; preds = %50
  %63 = icmp samesign ult i32 %6, 49
  br i1 %63, label %64, label %74

64:                                               ; preds = %62
  %65 = tail call i32 @tvb_get_bits32(ptr noundef %11, i32 noundef 0, i32 noundef 32, i32 noundef 0)
  %66 = zext i32 %65 to i64
  %67 = sub nuw nsw i32 16, %.092
  %68 = zext nneg i32 %67 to i64
  %69 = shl nuw nsw i64 %66, %68
  %70 = add nsw i32 %6, -32
  %71 = tail call zeroext i16 @tvb_get_bits16(ptr noundef %11, i32 noundef 32, i32 noundef %70, i32 noundef 0)
  %72 = zext i16 %71 to i64
  %73 = or i64 %69, %72
  br label %92

74:                                               ; preds = %62
  %75 = icmp samesign ult i32 %6, 57
  br i1 %75, label %76, label %90

76:                                               ; preds = %74
  %77 = tail call i32 @tvb_get_bits32(ptr noundef %11, i32 noundef 0, i32 noundef 32, i32 noundef 0)
  %78 = zext i32 %77 to i64
  %79 = shl nuw nsw i64 %78, 16
  %80 = tail call zeroext i16 @tvb_get_bits16(ptr noundef %11, i32 noundef 32, i32 noundef 16, i32 noundef 0)
  %81 = zext i16 %80 to i64
  %82 = or disjoint i64 %79, %81
  %83 = sub nuw nsw i32 8, %.092
  %84 = zext nneg i32 %83 to i64
  %85 = shl nuw nsw i64 %82, %84
  %86 = add nsw i32 %6, -48
  %87 = tail call zeroext i8 @tvb_get_bits8(ptr noundef %11, i32 noundef 48, i32 noundef %86)
  %88 = zext i8 %87 to i64
  %89 = or i64 %85, %88
  br label %92

90:                                               ; preds = %74
  %91 = tail call i64 @tvb_get_bits64(ptr noundef %11, i32 noundef 0, i32 noundef %6, i32 noundef 0)
  br label %92

92:                                               ; preds = %30, %47, %64, %90, %76, %52, %35, %25
  %.093 = phi i64 [ %27, %25 ], [ %32, %30 ], [ %44, %35 ], [ %49, %47 ], [ %61, %52 ], [ %73, %64 ], [ %89, %76 ], [ %91, %90 ]
  %93 = load ptr, ptr %16, align 8
  %94 = load ptr, ptr %12, align 8
  %95 = getelementptr inbounds nuw i8, ptr %94, i64 408
  %96 = load ptr, ptr %95, align 8
  %97 = tail call ptr @decode_bits_in_field(ptr noundef %96, i32 noundef 0, i32 noundef %6, i64 noundef %.093, i32 noundef 0)
  tail call void (ptr, ptr, ...) @proto_item_append_text(ptr noundef %93, ptr noundef nonnull @.str.185, ptr noundef %97, i64 noundef %.093)
  %.not98 = icmp eq ptr %7, null
  br i1 %.not98, label %.loopexit, label %98

98:                                               ; preds = %92
  %99 = load ptr, ptr %16, align 8
  %100 = load i32, ptr @ett_per_named_bits, align 4
  %101 = tail call ptr @proto_item_add_subtree(ptr noundef %99, i32 noundef %100)
  %.off = add i32 %8, 14
  %.not100 = icmp ult i32 %.off, 15
  br i1 %.not100, label %.loopexit, label %.lr.ph

.lr.ph:                                           ; preds = %98
  %102 = add nuw i32 %8, 7
  %103 = sdiv i32 %102, 8
  %104 = getelementptr inbounds nuw i8, ptr %10, i64 64
  %105 = add nsw i32 %6, -1
  %umax = tail call i32 @llvm.umax.i32(i32 %103, i32 1)
  %wide.trip.count = zext i32 %umax to i64
  br label %106

106:                                              ; preds = %.lr.ph, %119
  %indvars.iv = phi i64 [ 0, %.lr.ph ], [ %indvars.iv.next, %119 ]
  %107 = trunc nuw i64 %indvars.iv to i32
  %108 = shl i32 %107, 3
  %109 = icmp ult i32 %108, %6
  br i1 %109, label %110, label %113

110:                                              ; preds = %106
  %111 = call zeroext i8 @tvb_get_uint8(ptr noundef %11, i32 noundef %107)
  %112 = zext i8 %111 to i64
  br label %113

113:                                              ; preds = %110, %106
  %.1 = phi i64 [ %112, %110 ], [ 0, %106 ]
  %114 = zext i32 %108 to i64
  %115 = getelementptr ptr, ptr %7, i64 %114
  call void @llvm.lifetime.start.p0(i64 72, ptr nonnull %10) #13
  %116 = sub i32 %8, %108
  %117 = icmp ugt i32 %116, 8
  br i1 %117, label %118, label %119

118:                                              ; preds = %113
  call void @llvm.memcpy.p0.p0.i64(ptr noundef nonnull align 16 dereferenceable(64) %10, ptr noundef align 1 dereferenceable(64) %115, i64 noundef 64, i1 noundef false) #13
  store ptr null, ptr %104, align 16
  br label %119

119:                                              ; preds = %118, %113
  %.0 = phi ptr [ %10, %118 ], [ %115, %113 ]
  %120 = call i32 @llvm.umin.i32(i32 %107, i32 %105)
  %121 = add i32 %120, %1
  call void @proto_tree_add_bitmask_list_value(ptr noundef %101, ptr noundef %11, i32 noundef %121, i32 noundef 1, ptr noundef %.0, i64 noundef %.1)
  call void @llvm.lifetime.end.p0(i64 72, ptr nonnull %10) #13
  %indvars.iv.next = add nuw nsw i64 %indvars.iv, 1
  %exitcond.not = icmp eq i64 %indvars.iv.next, %wide.trip.count
  br i1 %exitcond.not, label %.loopexit, label %106, !llvm.loop !42

.loopexit:                                        ; preds = %119, %98, %92, %21
  %122 = load ptr, ptr %16, align 8
  call void (ptr, ptr, ...) @proto_item_append_text(ptr noundef %122, ptr noundef nonnull @.str.186)
  br label %123

123:                                              ; preds = %.loopexit, %9
  ret ptr %11
}